target datalayout = "e-m:e-p270:32:32-p271:32:32-p272:64:64-i64:64-i128:128-f80:128-n8:16:32:64-S128"
target triple = "x86_64-pc-linux-gnu"

%struct.rectangle = type { [2 x double], [2 x double] }
%struct.treenode_t = type { double, double, %struct.rectangle, ptr, ptr, %union.anon, i32, i64 }
%union.anon = type { ptr }

; Function Attrs: nounwind uwtable
define internal void @freeTree(ptr noundef %0) #0 {
  %2 = alloca ptr, align 8
  %3 = alloca ptr, align 8
  %4 = alloca ptr, align 8
  %5 = alloca i64, align 8
  %6 = alloca i64, align 8
  store ptr %0, ptr %2, align 8, !tbaa !10
  call void @llvm.lifetime.start.p0(i64 8, ptr %3) #10
  %7 = load ptr, ptr %2, align 8, !tbaa !10
  %8 = getelementptr inbounds nuw %struct.treenode_t, ptr %7, i32 0, i32 3
  %9 = load ptr, ptr %8, align 8, !tbaa !63
  store ptr %9, ptr %3, align 8, !tbaa !10
  call void @llvm.lifetime.start.p0(i64 8, ptr %4) #10
  call void @llvm.lifetime.start.p0(i64 8, ptr %5) #10
  %10 = load ptr, ptr %2, align 8, !tbaa !10
  %11 = getelementptr inbounds nuw %struct.treenode_t, ptr %10, i32 0, i32 7
  %12 = load i64, ptr %11, align 8, !tbaa !61
  store i64 %12, ptr %5, align 8, !tbaa !23
  call void @llvm.lifetime.start.p0(i64 8, ptr %6) #10
  store i64 0, ptr %6, align 8, !tbaa !23
  br label %13

13:                                               ; preds = %24, %1
  %14 = load i64, ptr %6, align 8, !tbaa !23
  %15 = load i64, ptr %5, align 8, !tbaa !23
  %16 = icmp ult i64 %14, %15
  br i1 %16, label %18, label %17

17:                                               ; preds = %13
  call void @llvm.lifetime.end.p0(i64 8, ptr %6) #10
  br label %27

18:                                               ; preds = %13
  %19 = load ptr, ptr %3, align 8, !tbaa !10
  %20 = getelementptr inbounds nuw %struct.treenode_t, ptr %19, i32 0, i32 4
  %21 = load ptr, ptr %20, align 8, !tbaa !47
  store ptr %21, ptr %4, align 8, !tbaa !10
  %22 = load ptr, ptr %3, align 8, !tbaa !10
  call void @freeTree(ptr noundef %22)
  %23 = load ptr, ptr %4, align 8, !tbaa !10
  store ptr %23, ptr %3, align 8, !tbaa !10
  br label %24

24:                                               ; preds = %18
  %25 = load i64, ptr %6, align 8, !tbaa !23
  %26 = add i64 %25, 1
  store i64 %26, ptr %6, align 8, !tbaa !23
  br label %13, !llvm.loop !91

27:                                               ; preds = %17
  %28 = load ptr, ptr %2, align 8, !tbaa !10
  call void @free(ptr noundef %28) #10
  call void @llvm.lifetime.end.p0(i64 8, ptr %5) #10
  call void @llvm.lifetime.end.p0(i64 8, ptr %4) #10
  call void @llvm.lifetime.end.p0(i64 8, ptr %3) #10
  ret void
}