; Function Attrs: nounwind uwtable
define internal fastcc void @freeTree(ptr noundef captures(none) %0) unnamed_addr #0 {
  %2 = getelementptr inbounds nuw i8, ptr %0, i64 80
  %3 = load i64, ptr %2, align 8, !tbaa !56
  %.not = icmp eq i64 %3, 0
  br i1 %.not, label %._crit_edge, label %.lr.ph.preheader

.lr.ph.preheader:                                 ; preds = %1
  %4 = getelementptr inbounds nuw i8, ptr %0, i64 48
  %5 = load ptr, ptr %4, align 8, !tbaa !58
  br label %.lr.ph

._crit_edge:                                      ; preds = %.lr.ph, %1
  tail call void @free(ptr noundef %0) #14
  ret void

.lr.ph:                                           ; preds = %.lr.ph.preheader, %.lr.ph
  %.010 = phi i64 [ %8, %.lr.ph ], [ 0, %.lr.ph.preheader ]
  %.089 = phi ptr [ %7, %.lr.ph ], [ %5, %.lr.ph.preheader ]
  %6 = getelementptr inbounds nuw i8, ptr %.089, i64 56
  %7 = load ptr, ptr %6, align 8, !tbaa !42
  tail call fastcc void @freeTree(ptr noundef %.089)
  %8 = add nuw i64 %.010, 1
  %exitcond.not = icmp eq i64 %8, %3
  br i1 %exitcond.not, label %._crit_edge, label %.lr.ph, !llvm.loop !79
}